target datalayout = "e-m:e-p270:32:32-p271:32:32-p272:64:64-i64:64-i128:128-f80:128-n8:16:32:64-S128"
target triple = "x86_64-pc-linux-gnu"

%struct.rpc_state = type { ptr, ptr, ptr, ptr, ptr, ptr, ptr, i64, i64, i64, i32, i32, i32, i8 }

@.str.1 = private unnamed_addr constant [14 x i8] c"remote-curl.c\00", align 1
@.str.27 = private unnamed_addr constant [1 x i8] zeroinitializer, align 1
@git_gettext_enabled = external global i32, align 4
@.str.93 = private unnamed_addr constant [39 x i8] c"rpc_seek only handles SEEK_SET, not %d\00", align 1
@.str.94 = private unnamed_addr constant [41 x i8] c"curl seek would be outside of rpc buffer\00", align 1
@.str.95 = private unnamed_addr constant [64 x i8] c"unable to rewind rpc post data - try increasing http.postBuffer\00", align 1

; Function Attrs: inlinehint nounwind uwtable
define internal ptr @_(ptr noundef %0) #4 {
  %2 = alloca ptr, align 8
  %3 = alloca ptr, align 8
  store ptr %0, ptr %3, align 8, !tbaa !18
  %4 = load ptr, ptr %3, align 8, !tbaa !18
  %5 = load i8, ptr %4, align 1, !tbaa !34
  %6 = icmp ne i8 %5, 0
  br i1 %6, label %8, label %7

7:                                                ; preds = %1
  store ptr @.str.27, ptr %2, align 8
  br label %16

8:                                                ; preds = %1
  %9 = load i32, ptr @git_gettext_enabled, align 4, !tbaa !4
  %10 = icmp ne i32 %9, 0
  br i1 %10, label %13, label %11

11:                                               ; preds = %8
  %12 = load ptr, ptr %3, align 8, !tbaa !18
  store ptr %12, ptr %2, align 8
  br label %16

13:                                               ; preds = %8
  %14 = load ptr, ptr %3, align 8, !tbaa !18
  %15 = call ptr @dcgettext(ptr noundef null, ptr noundef %14, i32 noundef 5) #10
  store ptr %15, ptr %2, align 8
  br label %16

16:                                               ; preds = %13, %11, %7
  %17 = load ptr, ptr %2, align 8
  ret ptr %17
}

; Function Attrs: inlinehint nounwind uwtable
define internal i32 @const_error() #4 {
  ret i32 -1
}

; Function Attrs: nounwind uwtable
define internal i32 @rpc_seek(ptr noundef %0, i64 noundef %1, i32 noundef %2) #0 {
  %4 = alloca i32, align 4
  %5 = alloca ptr, align 8
  %6 = alloca i64, align 8
  %7 = alloca i32, align 4
  %8 = alloca ptr, align 8
  %9 = alloca i32, align 4
  store ptr %0, ptr %5, align 8, !tbaa !153
  store i64 %1, ptr %6, align 8, !tbaa !33
  store i32 %2, ptr %7, align 4, !tbaa !4
  call void @llvm.lifetime.start.p0(i64 8, ptr %8) #10
  %10 = load ptr, ptr %5, align 8, !tbaa !153
  store ptr %10, ptr %8, align 8, !tbaa !116
  %11 = load i32, ptr %7, align 4, !tbaa !4
  %12 = icmp ne i32 %11, 0
  br i1 %12, label %13, label %15

13:                                               ; preds = %3
  %14 = load i32, ptr %7, align 4, !tbaa !4
  call void (ptr, i32, ptr, ...) @BUG_fl(ptr noundef @.str.1, i32 noundef 747, ptr noundef @.str.93, i32 noundef %14) #11
  unreachable

15:                                               ; preds = %3
  %16 = load ptr, ptr %8, align 8, !tbaa !116
  %17 = getelementptr inbounds nuw %struct.rpc_state, ptr %16, i32 0, i32 13
  %18 = load i8, ptr %17, align 4
  %19 = lshr i8 %18, 1
  %20 = and i8 %19, 1
  %21 = zext i8 %20 to i32
  %22 = icmp ne i32 %21, 0
  br i1 %22, label %23, label %39

23:                                               ; preds = %15
  %24 = load i64, ptr %6, align 8, !tbaa !33
  %25 = icmp slt i64 %24, 0
  br i1 %25, label %32, label %26

26:                                               ; preds = %23
  %27 = load i64, ptr %6, align 8, !tbaa !33
  %28 = load ptr, ptr %8, align 8, !tbaa !116
  %29 = getelementptr inbounds nuw %struct.rpc_state, ptr %28, i32 0, i32 8
  %30 = load i64, ptr %29, align 8, !tbaa !70
  %31 = icmp ugt i64 %27, %30
  br i1 %31, label %32, label %35

32:                                               ; preds = %26, %23
  %33 = call i32 (ptr, ...) @error(ptr noundef @.str.94)
  %34 = call i32 @const_error()
  store i32 1, ptr %4, align 4
  store i32 1, ptr %9, align 4
  br label %43

35:                                               ; preds = %26
  %36 = load i64, ptr %6, align 8, !tbaa !33
  %37 = load ptr, ptr %8, align 8, !tbaa !116
  %38 = getelementptr inbounds nuw %struct.rpc_state, ptr %37, i32 0, i32 9
  store i64 %36, ptr %38, align 8, !tbaa !71
  store i32 0, ptr %4, align 4
  store i32 1, ptr %9, align 4
  br label %43

39:                                               ; preds = %15
  %40 = call ptr @_(ptr noundef @.str.95)
  %41 = call i32 (ptr, ...) @error(ptr noundef %40)
  %42 = call i32 @const_error()
  store i32 1, ptr %4, align 4
  store i32 1, ptr %9, align 4
  br label %43

43:                                               ; preds = %39, %35, %32
  call void @llvm.lifetime.end.p0(i64 8, ptr %8) #10
  %44 = load i32, ptr %4, align 4
  ret i32 %44
}