; Function Attrs: nounwind uwtable
define internal range(i32 0, 2) i32 @rpc_seek(ptr noundef captures(none) %0, i64 noundef %1, i32 noundef %2) #0 {
  %.not = icmp eq i32 %2, 0
  br i1 %.not, label %5, label %4

4:                                                ; preds = %3
  tail call void (ptr, i32, ptr, ...) @BUG_fl(ptr noundef nonnull @.str.1, i32 noundef 747, ptr noundef nonnull @.str.93, i32 noundef %2) #18
  unreachable

5:                                                ; preds = %3
  %6 = getelementptr inbounds nuw i8, ptr %0, i64 92
  %7 = load i8, ptr %6, align 4
  %8 = and i8 %7, 2
  %.not11 = icmp eq i8 %8, 0
  br i1 %.not11, label %19, label %9

9:                                                ; preds = %5
  %10 = icmp slt i64 %1, 0
  br i1 %10, label %15, label %11

11:                                               ; preds = %9
  %12 = getelementptr inbounds nuw i8, ptr %0, i64 64
  %13 = load i64, ptr %12, align 8, !tbaa !95
  %14 = icmp ugt i64 %1, %13
  br i1 %14, label %15, label %17

15:                                               ; preds = %11, %9
  %16 = tail call i32 (ptr, ...) @error(ptr noundef nonnull @.str.94) #17
  br label %24

17:                                               ; preds = %11
  %18 = getelementptr inbounds nuw i8, ptr %0, i64 72
  store i64 %1, ptr %18, align 8, !tbaa !117
  br label %24

19:                                               ; preds = %5
  %20 = load i32, ptr @git_gettext_enabled, align 4, !tbaa !4
  %.not4.i = icmp eq i32 %20, 0
  br i1 %.not4.i, label %_.exit, label %21

21:                                               ; preds = %19
  %22 = tail call ptr @dcgettext(ptr noundef null, ptr noundef nonnull @.str.95, i32 noundef 5) #17
  br label %_.exit

_.exit:                                           ; preds = %19, %21
  %.0.i = phi ptr [ %22, %21 ], [ @.str.95, %19 ]
  %23 = tail call i32 (ptr, ...) @error(ptr noundef %.0.i) #17
  br label %24

24:                                               ; preds = %_.exit, %17, %15
  %.0 = phi i32 [ 1, %15 ], [ 0, %17 ], [ 1, %_.exit ]
  ret i32 %.0
}